target datalayout = "e-m:e-p270:32:32-p271:32:32-p272:64:64-i64:64-i128:128-f80:128-n8:16:32:64-S128"
target triple = "x86_64-pc-linux-gnu"

%"class.boost::wave::util::flex_string" = type { %"class.boost::wave::util::CowString" }
%"class.boost::wave::util::CowString" = type { %union.anon }
%union.anon = type { ptr }
%"class.std::allocator" = type { i8 }

@.str.186 = private unnamed_addr constant [15 x i8] c"<UnknownToken>\00", align 1

; Function Attrs: mustprogress nounwind uwtable
define linkonce_odr hidden noundef i64 @_ZNSt11char_traitsIcE6lengthEPKc(ptr noundef %0) #2 comdat align 2 {
  %2 = alloca ptr, align 8
  store ptr %0, ptr %2, align 8, !tbaa !9
  %3 = load ptr, ptr %2, align 8, !tbaa !9
  %4 = call i64 @strlen(ptr noundef %3) #13
  ret i64 %4
}

; Function Attrs: mustprogress nounwind uwtable
define linkonce_odr hidden void @_ZNSt15__new_allocatorIcEC2Ev(ptr noundef nonnull align 1 dereferenceable(1) %0) unnamed_addr #2 comdat align 2 {
  %2 = alloca ptr, align 8
  store ptr %0, ptr %2, align 8, !tbaa !9
  ret void
}

; Function Attrs: mustprogress nounwind uwtable
define linkonce_odr hidden void @_ZNSt15__new_allocatorIcED2Ev(ptr noundef nonnull align 1 dereferenceable(1) %0) unnamed_addr #2 comdat align 2 {
  %2 = alloca ptr, align 8
  store ptr %0, ptr %2, align 8, !tbaa !9
  ret void
}

; Function Attrs: mustprogress uwtable
define linkonce_odr hidden void @_ZN5boost4wave4util11flex_stringIcSt11char_traitsIcESaIcENS1_9CowStringINS1_22AllocatorStringStorageIcS5_EEPcEEEC2EPKcRKS5_(ptr noundef nonnull align 8 dereferenceable(8) %0, ptr noundef %1, ptr noundef nonnull align 1 dereferenceable(1) %2) unnamed_addr #0 comdat align 2 {
  %4 = alloca ptr, align 8
  %5 = alloca ptr, align 8
  %6 = alloca ptr, align 8
  store ptr %0, ptr %4, align 8, !tbaa !9
  store ptr %1, ptr %5, align 8, !tbaa !9
  store ptr %2, ptr %6, align 8, !tbaa !9
  %7 = load ptr, ptr %4, align 8
  %8 = load ptr, ptr %5, align 8, !tbaa !9
  %9 = load ptr, ptr %5, align 8, !tbaa !9
  %10 = call noundef i64 @_ZNSt11char_traitsIcE6lengthEPKc(ptr noundef %9)
  %11 = load ptr, ptr %6, align 8, !tbaa !9
  call void @_ZN5boost4wave4util9CowStringINS1_22AllocatorStringStorageIcSaIcEEEPcEC2EPKcmRKS4_(ptr noundef nonnull align 8 dereferenceable(8) %7, ptr noundef %8, i64 noundef %10, ptr noundef nonnull align 1 dereferenceable(1) %11)
  ret void
}

; Function Attrs: mustprogress nounwind uwtable
define available_externally void @_ZNSaIcEC2Ev(ptr noundef nonnull align 1 dereferenceable(1) %0) unnamed_addr #2 align 2 {
  %2 = alloca ptr, align 8
  store ptr %0, ptr %2, align 8, !tbaa !9
  %3 = load ptr, ptr %2, align 8
  call void @_ZNSt15__new_allocatorIcEC2Ev(ptr noundef nonnull align 1 dereferenceable(1) %3) #13
  ret void
}

; Function Attrs: mustprogress uwtable
define void @_ZN5boost4wave14get_token_nameENS0_8token_idE(ptr dead_on_unwind noalias writable sret(%"class.boost::wave::util::flex_string") align 8 %0, i32 noundef %1) #0 personality ptr @__gxx_personality_v0 {
  %3 = alloca ptr, align 8
  %4 = alloca i32, align 4
  %5 = alloca i32, align 4
  %6 = alloca %"class.std::allocator", align 1
  %7 = alloca ptr, align 8
  %8 = alloca i32, align 4
  store ptr %0, ptr %3, align 8
  store i32 %1, ptr %4, align 4, !tbaa !3
  call void @llvm.lifetime.start.p0(i64 4, ptr %5) #13
  %9 = load i32, ptr %4, align 4, !tbaa !3
  %10 = and i32 %9, -2147221505
  %11 = sub i32 %10, 256
  store i32 %11, ptr %5, align 4, !tbaa !7
  %12 = load i32, ptr %5, align 4, !tbaa !7
  %13 = icmp ult i32 %12, 186
  br i1 %13, label %14, label %19

14:                                               ; preds = %2
  %15 = load i32, ptr %5, align 4, !tbaa !7
  %16 = zext i32 %15 to i64
  %17 = getelementptr inbounds nuw [186 x ptr], ptr @_ZZN5boost4wave14get_token_nameENS0_8token_idEE9tok_names, i64 0, i64 %16
  %18 = load ptr, ptr %17, align 8, !tbaa !9
  br label %20

19:                                               ; preds = %2
  br label %20

20:                                               ; preds = %19, %14
  %21 = phi ptr [ %18, %14 ], [ @.str.186, %19 ]
  call void @llvm.lifetime.start.p0(i64 1, ptr %6) #13
  call void @_ZNSaIcEC2Ev(ptr noundef nonnull align 1 dereferenceable(1) %6) #13
  invoke void @_ZN5boost4wave4util11flex_stringIcSt11char_traitsIcESaIcENS1_9CowStringINS1_22AllocatorStringStorageIcS5_EEPcEEEC2EPKcRKS5_(ptr noundef nonnull align 8 dereferenceable(8) %0, ptr noundef %21, ptr noundef nonnull align 1 dereferenceable(1) %6)
          to label %22 unwind label %23

22:                                               ; preds = %20
  call void @_ZNSt15__new_allocatorIcED2Ev(ptr noundef nonnull align 1 dereferenceable(1) %6) #13
  call void @llvm.lifetime.end.p0(i64 1, ptr %6) #13
  call void @llvm.lifetime.end.p0(i64 4, ptr %5) #13
  ret void

23:                                               ; preds = %20
  %24 = landingpad { ptr, i32 }
          cleanup
  %25 = extractvalue { ptr, i32 } %24, 0
  store ptr %25, ptr %7, align 8
  %26 = extractvalue { ptr, i32 } %24, 1
  store i32 %26, ptr %8, align 4
  call void @_ZNSt15__new_allocatorIcED2Ev(ptr noundef nonnull align 1 dereferenceable(1) %6) #13
  call void @llvm.lifetime.end.p0(i64 1, ptr %6) #13
  call void @llvm.lifetime.end.p0(i64 4, ptr %5) #13
  br label %27

27:                                               ; preds = %23
  %28 = load ptr, ptr %7, align 8
  %29 = load i32, ptr %8, align 4
  %30 = insertvalue { ptr, i32 } poison, ptr %28, 0
  %31 = insertvalue { ptr, i32 } %30, i32 %29, 1
  resume { ptr, i32 } %31
}