; Function Attrs: mustprogress uwtable
define void @_ZN5boost4wave14get_token_nameENS0_8token_idE(ptr dead_on_unwind noalias writable sret(%"class.boost::wave::util::flex_string") align 8 %0, i32 noundef %1) local_unnamed_addr #0 personality ptr @__gxx_personality_v0 {
  %3 = alloca %"class.std::allocator", align 1
  %4 = and i32 %1, -2147221505
  %5 = add i32 %4, -256
  %6 = icmp ult i32 %5, 186
  br i1 %6, label %7, label %_ZN5boost4wave4util11flex_stringIcSt11char_traitsIcESaIcENS1_9CowStringINS1_22AllocatorStringStorageIcS5_EEPcEEEC2EPKcRKS5_.exit

7:                                                ; preds = %2
  %8 = zext nneg i32 %5 to i64
  %9 = getelementptr inbounds nuw [186 x ptr], ptr @_ZZN5boost4wave14get_token_nameENS0_8token_idEE9tok_names, i64 0, i64 %8
  %10 = load ptr, ptr %9, align 8, !tbaa !3
  br label %_ZN5boost4wave4util11flex_stringIcSt11char_traitsIcESaIcENS1_9CowStringINS1_22AllocatorStringStorageIcS5_EEPcEEEC2EPKcRKS5_.exit

_ZN5boost4wave4util11flex_stringIcSt11char_traitsIcESaIcENS1_9CowStringINS1_22AllocatorStringStorageIcS5_EEPcEEEC2EPKcRKS5_.exit: ; preds = %2, %7
  %11 = phi ptr [ %10, %7 ], [ @.str.186, %2 ]
  call void @llvm.lifetime.start.p0(i64 1, ptr nonnull %3) #9
  %12 = tail call noundef i64 @strlen(ptr noundef nonnull dereferenceable(1) %11) #9
  call void @_ZN5boost4wave4util9CowStringINS1_22AllocatorStringStorageIcSaIcEEEPcEC2EPKcmRKS4_(ptr noundef nonnull align 8 dereferenceable(8) %0, ptr noundef %11, i64 noundef %12, ptr noundef nonnull align 1 dereferenceable(1) %3)
  call void @llvm.lifetime.end.p0(i64 1, ptr nonnull %3) #9
  ret void
}